target datalayout = "e-m:e-p270:32:32-p271:32:32-p272:64:64-i64:64-i128:128-f80:128-n8:16:32:64-S128"
target triple = "x86_64-pc-linux-gnu"

%struct.stat = type { i64, i64, i64, i32, i32, i32, i32, i64, i64, i64, i64, %struct.timespec, %struct.timespec, %struct.timespec, [3 x i64] }
%struct.timespec = type { i64, i64 }

; Function Attrs: mustprogress nounwind uwtable
define signext i8 @uprv_fileExists(ptr noundef %0) #0 {
  %2 = alloca i8, align 1
  %3 = alloca ptr, align 8
  %4 = alloca %struct.stat, align 8
  %5 = alloca i32, align 4
  store ptr %0, ptr %3, align 8, !tbaa !44
  call void @llvm.lifetime.start.p0(i64 144, ptr %4) #14
  %6 = load ptr, ptr %3, align 8, !tbaa !44
  %7 = call i32 @stat(ptr noundef %6, ptr noundef %4) #14
  %8 = icmp eq i32 %7, 0
  br i1 %8, label %9, label %10

9:                                                ; preds = %1
  store i8 1, ptr %2, align 1
  store i32 1, ptr %5, align 4
  br label %11

10:                                               ; preds = %1
  store i8 0, ptr %2, align 1
  store i32 1, ptr %5, align 4
  br label %11

11:                                               ; preds = %10, %9
  call void @llvm.lifetime.end.p0(i64 144, ptr %4) #14
  %12 = load i8, ptr %2, align 1
  ret i8 %12
}