; Function Attrs: mustprogress nofree nounwind uwtable
define signext range(i8 0, 2) i8 @uprv_fileExists(ptr noundef readonly captures(none) %0) local_unnamed_addr #15 {
  %2 = alloca %struct.stat, align 8
  call void @llvm.lifetime.start.p0(i64 144, ptr nonnull %2) #23
  %3 = call i32 @stat(ptr noundef %0, ptr noundef nonnull %2) #23
  %4 = icmp eq i32 %3, 0
  %. = zext i1 %4 to i8
  call void @llvm.lifetime.end.p0(i64 144, ptr nonnull %2) #23
  ret i8 %.
}